target datalayout = "e-m:e-p270:32:32-p271:32:32-p272:64:64-i64:64-i128:128-f80:128-n8:16:32:64-S128"
target triple = "x86_64-pc-linux-gnu"

%struct.AVRational = type { i32, i32 }
%struct.AVChannelLayout = type { i32, i32, %union.anon.2, ptr }
%union.anon.2 = type { i64 }
%struct.VVCContext = type { ptr, ptr, %struct.CodedBitstreamFragment, %struct.VVCParamSets, i32, i32, i32, i32, i32, i32, i32, i16, i16, ptr, ptr, i32, i64, i32 }
%struct.CodedBitstreamFragment = type { ptr, i64, i64, ptr, i32, i32, ptr }
%struct.VVCParamSets = type { [16 x ptr], [64 x ptr], [8 x ptr], [4 x ptr], [8 x ptr], i16 }
%struct.VVCFrameContext = type { ptr, [17 x %struct.VVCFrame], ptr, ptr, %struct.VVCFrameParamSets, ptr, i32, i32, ptr, %struct.VVCDSPContext, %struct.VideoDSPContext, ptr, i64, ptr, ptr, ptr, ptr, %struct.anon }
%struct.VVCFrame = type { ptr, ptr, ptr, ptr, ptr, ptr, i32, i32, i32, %struct.VVCWindow, i32, i32, ptr, ptr, i16, i8, ptr }
%struct.VVCWindow = type { i16, i16, i16, i16 }
%struct.VVCFrameParamSets = type { ptr, ptr, %struct.VVCPH, [8 x ptr], %struct.VVCLMCS, ptr }
%struct.VVCPH = type { ptr, ptr, i32, i32, i8, [3 x i16], i8, [3 x i16], %struct.PredWeightTable }
%struct.PredWeightTable = type { [2 x i8], [2 x i8], [2 x [2 x [15 x i8]]], [2 x [3 x [15 x i16]]], [2 x [3 x [15 x i16]]] }
%struct.VVCLMCS = type { i8, i8, %union.anon.0, %union.anon.0, [17 x i16], [16 x i16] }
%union.anon.0 = type { [4096 x i16] }
%struct.VVCDSPContext = type { %struct.VVCInterDSPContext, %struct.VVCIntraDSPContext, %struct.VVCItxDSPContext, %struct.VVCLMCSDSPContext, %struct.VVCLFDSPContext, %struct.VVCSAODSPContext, %struct.VVCALFDSPContext }
%struct.VVCInterDSPContext = type { [2 x [7 x [2 x [2 x ptr]]]], [2 x [7 x [2 x [2 x ptr]]]], [2 x [7 x [2 x [2 x ptr]]]], [2 x [7 x ptr]], [2 x [7 x ptr]], [2 x [7 x ptr]], ptr, ptr, ptr, ptr, ptr, ptr, ptr, ptr, ptr, ptr, ptr, [2 x [2 x ptr]] }
%struct.VVCIntraDSPContext = type { ptr, ptr, ptr, ptr, ptr, ptr, ptr, ptr, ptr, ptr }
%struct.VVCItxDSPContext = type { ptr, ptr, [3 x [6 x ptr]], ptr, ptr }
%struct.VVCLMCSDSPContext = type { ptr }
%struct.VVCLFDSPContext = type { [2 x ptr], [2 x ptr], [2 x ptr] }
%struct.VVCSAODSPContext = type { [9 x ptr], [9 x ptr], [2 x ptr] }
%struct.VVCALFDSPContext = type { [2 x ptr], ptr, ptr, ptr }
%struct.VideoDSPContext = type { ptr, ptr }
%struct.anon = type { ptr, ptr, ptr, ptr, [2 x ptr], [2 x ptr], [2 x ptr], [2 x ptr], [2 x ptr], [3 x ptr], ptr, ptr, [2 x ptr], ptr, ptr, [2 x ptr], ptr, ptr, ptr, [2 x ptr], ptr, [3 x ptr], ptr, [2 x ptr], [2 x ptr], [2 x ptr], [2 x [3 x ptr]], [2 x ptr], [2 x ptr], [3 x ptr], [3 x ptr], [3 x [2 x ptr]], [3 x [2 x ptr]], ptr, ptr, ptr, [3 x ptr], %struct.anon.1 }
%struct.anon.1 = type { i32, i32, i32, i32, i32, i32, i32, i32, i32, i32, i32, i32 }
%struct.AVFrame = type { [8 x ptr], [8 x i32], ptr, i32, i32, i32, i32, i32, %struct.AVRational, i64, i64, %struct.AVRational, i32, ptr, i32, i32, [8 x ptr], ptr, i32, ptr, i32, i32, i32, i32, i32, i32, i32, i64, ptr, i32, ptr, ptr, i64, i64, i64, i64, ptr, %struct.AVChannelLayout, i64 }

; Function Attrs: nounwind uwtable
define internal ptr @get_frame_context(ptr noundef %0, ptr noundef %1, i32 noundef %2) #0 {
  %4 = alloca ptr, align 8
  %5 = alloca ptr, align 8
  %6 = alloca i32, align 4
  %7 = alloca i32, align 4
  %8 = alloca i32, align 4
  store ptr %0, ptr %4, align 8, !tbaa !46
  store ptr %1, ptr %5, align 8, !tbaa !4
  store i32 %2, ptr %6, align 4, !tbaa !10
  call void @llvm.lifetime.start.p0(i64 4, ptr %7) #9
  %9 = load ptr, ptr %4, align 8, !tbaa !46
  %10 = getelementptr inbounds nuw %struct.VVCContext, ptr %9, i32 0, i32 15
  %11 = load i32, ptr %10, align 8, !tbaa !61
  store i32 %11, ptr %7, align 4, !tbaa !10
  call void @llvm.lifetime.start.p0(i64 4, ptr %8) #9
  %12 = load ptr, ptr %5, align 8, !tbaa !4
  %13 = load ptr, ptr %4, align 8, !tbaa !46
  %14 = getelementptr inbounds nuw %struct.VVCContext, ptr %13, i32 0, i32 14
  %15 = load ptr, ptr %14, align 8, !tbaa !62
  %16 = ptrtoint ptr %12 to i64
  %17 = ptrtoint ptr %15 to i64
  %18 = sub i64 %16, %17
  %19 = sdiv exact i64 %18, 21984
  %20 = load i32, ptr %6, align 4, !tbaa !10
  %21 = sext i32 %20 to i64
  %22 = add nsw i64 %19, %21
  %23 = load i32, ptr %7, align 4, !tbaa !10
  %24 = sext i32 %23 to i64
  %25 = add nsw i64 %22, %24
  %26 = load i32, ptr %7, align 4, !tbaa !10
  %27 = sext i32 %26 to i64
  %28 = srem i64 %25, %27
  %29 = trunc i64 %28 to i32
  store i32 %29, ptr %8, align 4, !tbaa !10
  %30 = load ptr, ptr %4, align 8, !tbaa !46
  %31 = getelementptr inbounds nuw %struct.VVCContext, ptr %30, i32 0, i32 14
  %32 = load ptr, ptr %31, align 8, !tbaa !62
  %33 = load i32, ptr %8, align 4, !tbaa !10
  %34 = sext i32 %33 to i64
  %35 = getelementptr inbounds %struct.VVCFrameContext, ptr %32, i64 %34
  call void @llvm.lifetime.end.p0(i64 4, ptr %8) #9
  call void @llvm.lifetime.end.p0(i64 4, ptr %7) #9
  ret ptr %35
}

; Function Attrs: nounwind uwtable
define internal i32 @wait_delayed_frame(ptr noundef %0, ptr noundef %1, ptr noundef %2) #0 {
  %4 = alloca ptr, align 8
  %5 = alloca ptr, align 8
  %6 = alloca ptr, align 8
  %7 = alloca ptr, align 8
  %8 = alloca i32, align 4
  store ptr %0, ptr %4, align 8, !tbaa !46
  store ptr %1, ptr %5, align 8, !tbaa !67
  store ptr %2, ptr %6, align 8, !tbaa !69
  call void @llvm.lifetime.start.p0(i64 8, ptr %7) #9
  %9 = load ptr, ptr %4, align 8, !tbaa !46
  %10 = load ptr, ptr %4, align 8, !tbaa !46
  %11 = getelementptr inbounds nuw %struct.VVCContext, ptr %10, i32 0, i32 14
  %12 = load ptr, ptr %11, align 8, !tbaa !62
  %13 = load ptr, ptr %4, align 8, !tbaa !46
  %14 = getelementptr inbounds nuw %struct.VVCContext, ptr %13, i32 0, i32 16
  %15 = load i64, ptr %14, align 8, !tbaa !74
  %16 = load ptr, ptr %4, align 8, !tbaa !46
  %17 = getelementptr inbounds nuw %struct.VVCContext, ptr %16, i32 0, i32 17
  %18 = load i32, ptr %17, align 8, !tbaa !110
  %19 = sext i32 %18 to i64
  %20 = sub i64 %15, %19
  %21 = trunc i64 %20 to i32
  %22 = call ptr @get_frame_context(ptr noundef %9, ptr noundef %12, i32 noundef %21)
  store ptr %22, ptr %7, align 8, !tbaa !4
  call void @llvm.lifetime.start.p0(i64 4, ptr %8) #9
  %23 = load ptr, ptr %4, align 8, !tbaa !46
  %24 = load ptr, ptr %7, align 8, !tbaa !4
  %25 = call i32 @ff_vvc_frame_wait(ptr noundef %23, ptr noundef %24)
  store i32 %25, ptr %8, align 4, !tbaa !10
  %26 = load i32, ptr %8, align 4, !tbaa !10
  %27 = icmp ne i32 %26, 0
  br i1 %27, label %45, label %28

28:                                               ; preds = %3
  %29 = load ptr, ptr %7, align 8, !tbaa !4
  %30 = getelementptr inbounds nuw %struct.VVCFrameContext, ptr %29, i32 0, i32 3
  %31 = load ptr, ptr %30, align 8, !tbaa !175
  %32 = getelementptr inbounds nuw %struct.AVFrame, ptr %31, i32 0, i32 16
  %33 = getelementptr inbounds [8 x ptr], ptr %32, i64 0, i64 0
  %34 = load ptr, ptr %33, align 8, !tbaa !212
  %35 = icmp ne ptr %34, null
  br i1 %35, label %36, label %45

36:                                               ; preds = %28
  %37 = load ptr, ptr %5, align 8, !tbaa !67
  %38 = icmp ne ptr %37, null
  br i1 %38, label %39, label %45

39:                                               ; preds = %36
  %40 = load ptr, ptr %5, align 8, !tbaa !67
  %41 = load ptr, ptr %7, align 8, !tbaa !4
  %42 = getelementptr inbounds nuw %struct.VVCFrameContext, ptr %41, i32 0, i32 3
  %43 = load ptr, ptr %42, align 8, !tbaa !175
  call void @av_frame_move_ref(ptr noundef %40, ptr noundef %43)
  %44 = load ptr, ptr %6, align 8, !tbaa !69
  store i32 1, ptr %44, align 4, !tbaa !10
  br label %45

45:                                               ; preds = %39, %36, %28, %3
  %46 = load ptr, ptr %4, align 8, !tbaa !46
  %47 = getelementptr inbounds nuw %struct.VVCContext, ptr %46, i32 0, i32 17
  %48 = load i32, ptr %47, align 8, !tbaa !110
  %49 = add nsw i32 %48, -1
  store i32 %49, ptr %47, align 8, !tbaa !110
  %50 = load i32, ptr %8, align 4, !tbaa !10
  call void @llvm.lifetime.end.p0(i64 4, ptr %8) #9
  call void @llvm.lifetime.end.p0(i64 8, ptr %7) #9
  ret i32 %50
}