; Function Attrs: nounwind uwtable
define internal fastcc void @wait_delayed_frame(ptr noundef %0, ptr noundef %1, ptr noundef writeonly captures(none) %2) unnamed_addr #0 {
  %4 = getelementptr inbounds nuw i8, ptr %0, i64 912
  %5 = load ptr, ptr %4, align 8, !tbaa !53
  %6 = getelementptr inbounds nuw i8, ptr %0, i64 928
  %7 = load i64, ptr %6, align 8, !tbaa !61
  %8 = getelementptr inbounds nuw i8, ptr %0, i64 936
  %9 = load i32, ptr %8, align 8, !tbaa !60
  %10 = trunc i64 %7 to i32
  %11 = sub i32 %10, %9
  %12 = getelementptr i8, ptr %0, i64 920
  %.val14 = load i32, ptr %12, align 8, !tbaa !52
  %13 = sext i32 %11 to i64
  %14 = sext i32 %.val14 to i64
  %15 = add nsw i64 %13, %14
  %16 = srem i64 %15, %14
  %17 = getelementptr inbounds %struct.VVCFrameContext, ptr %5, i64 %16
  %18 = tail call i32 @ff_vvc_frame_wait(ptr noundef %0, ptr noundef %17) #10
  %.not = icmp eq i32 %18, 0
  br i1 %.not, label %19, label %27

19:                                               ; preds = %3
  %20 = getelementptr inbounds nuw i8, ptr %17, i64 1920
  %21 = load ptr, ptr %20, align 8, !tbaa !64
  %22 = getelementptr inbounds nuw i8, ptr %21, i64 184
  %23 = load ptr, ptr %22, align 8, !tbaa !96
  %24 = icmp ne ptr %23, null
  %25 = icmp ne ptr %1, null
  %or.cond = and i1 %25, %24
  br i1 %or.cond, label %26, label %27

26:                                               ; preds = %19
  tail call void @av_frame_move_ref(ptr noundef nonnull %1, ptr noundef nonnull %21) #10
  store i32 1, ptr %2, align 4, !tbaa !62
  br label %27

27:                                               ; preds = %26, %19, %3
  %28 = load i32, ptr %8, align 8, !tbaa !60
  %29 = add nsw i32 %28, -1
  store i32 %29, ptr %8, align 8, !tbaa !60
  ret void
}